target datalayout = "e-m:e-p270:32:32-p271:32:32-p272:64:64-i64:64-i128:128-f80:128-n8:16:32:64-S128"
target triple = "x86_64-pc-linux-gnu"

%"struct.faiss::IndexAdditiveQuantizer" = type { %"struct.faiss::IndexFlatCodes", ptr }
%"struct.faiss::IndexFlatCodes" = type { %"struct.faiss::Index.base", i64, %"class.std::vector" }
%"struct.faiss::Index.base" = type <{ ptr, i32, [4 x i8], i64, i8, i8, [2 x i8], i32, float }>
%"class.std::vector" = type { %"struct.std::_Vector_base" }
%"struct.std::_Vector_base" = type { %"struct.std::_Vector_base<unsigned char, std::allocator<unsigned char>>::_Vector_impl" }
%"struct.std::_Vector_base<unsigned char, std::allocator<unsigned char>>::_Vector_impl" = type { %"struct.std::_Vector_base<unsigned char, std::allocator<unsigned char>>::_Vector_impl_data" }
%"struct.std::_Vector_base<unsigned char, std::allocator<unsigned char>>::_Vector_impl_data" = type { ptr, ptr, ptr }
%"struct.faiss::Quantizer" = type { ptr, i64, i64 }
%"class.std::vector.0" = type { %"struct.std::_Vector_base.1" }
%"struct.std::_Vector_base.1" = type { %"struct.std::_Vector_base<unsigned long, std::allocator<unsigned long>>::_Vector_impl" }
%"struct.std::_Vector_base<unsigned long, std::allocator<unsigned long>>::_Vector_impl" = type { %"struct.std::_Vector_base<unsigned long, std::allocator<unsigned long>>::_Vector_impl_data" }
%"struct.std::_Vector_base<unsigned long, std::allocator<unsigned long>>::_Vector_impl_data" = type { ptr, ptr, ptr }
%"struct.faiss::IndexFlat1D" = type { %"struct.faiss::IndexFlatL2", i8, %"class.std::vector.10" }
%"struct.faiss::IndexFlatL2" = type { %"struct.faiss::IndexFlat", %"class.std::vector.5" }
%"struct.faiss::IndexFlat" = type { %"struct.faiss::IndexFlatCodes" }
%"class.std::vector.10" = type { %"struct.std::_Vector_base.11" }
%"struct.std::_Vector_base.11" = type { %"struct.std::_Vector_base<long, std::allocator<long>>::_Vector_impl" }
%"struct.std::_Vector_base<long, std::allocator<long>>::_Vector_impl" = type { %"struct.std::_Vector_base<long, std::allocator<long>>::_Vector_impl_data" }
%"struct.std::_Vector_base<long, std::allocator<long>>::_Vector_impl_data" = type { ptr, ptr, ptr }
%"class.std::vector.5" = type { %"struct.std::_Vector_base.6" }
%"struct.std::_Vector_base.6" = type { %"struct.std::_Vector_base<float, std::allocator<float>>::_Vector_impl" }
%"struct.std::_Vector_base<float, std::allocator<float>>::_Vector_impl" = type { %"struct.std::_Vector_base<float, std::allocator<float>>::_Vector_impl_data" }
%"struct.std::_Vector_base<float, std::allocator<float>>::_Vector_impl_data" = type { ptr, ptr, ptr }
%"struct.faiss::Index" = type <{ ptr, i32, [4 x i8], i64, i8, i8, [2 x i8], i32, float, [4 x i8] }>
%"struct.faiss::AdditiveQuantizer.base" = type <{ %"struct.faiss::Quantizer", i64, %"class.std::vector.0", %"class.std::vector.5", %"class.std::vector.0", i64, i64, i64, i8, i8, i8, [5 x i8], %"struct.faiss::IndexFlat1D", %"class.std::vector.5", i64, i32, float, float }>
%"struct.faiss::IndexLocalSearchQuantizer" = type { %"struct.faiss::IndexAdditiveQuantizer", %"struct.faiss::LocalSearchQuantizer" }
%"struct.faiss::LocalSearchQuantizer" = type <{ %"struct.faiss::AdditiveQuantizer.base", [4 x i8], i64, i64, i64, i64, i64, float, float, i64, i32, [4 x i8], i64, ptr, i8, [7 x i8] }>

; Function Attrs: mustprogress uwtable
define void @_ZN5faiss25IndexLocalSearchQuantizerC2EimmNS_10MetricTypeENS_17AdditiveQuantizer13Search_type_tE(ptr noundef nonnull align 8 dereferenceable(480) %0, i32 noundef %1, i64 noundef %2, i64 noundef %3, i32 noundef %4, i32 noundef %5) unnamed_addr #2 align 2 personality ptr @__gxx_personality_v0 {
  %7 = alloca ptr, align 8
  %8 = alloca i32, align 4
  %9 = alloca i64, align 8
  %10 = alloca i64, align 8
  %11 = alloca i32, align 4
  %12 = alloca i32, align 4
  %13 = alloca ptr, align 8
  %14 = alloca i32, align 4
  store ptr %0, ptr %7, align 8
  store i32 %1, ptr %8, align 4
  store i64 %2, ptr %9, align 8
  store i64 %3, ptr %10, align 8
  store i32 %4, ptr %11, align 4
  store i32 %5, ptr %12, align 4
  %15 = load ptr, ptr %7, align 8
  store ptr getelementptr inbounds ({ [25 x ptr] }, ptr @_ZTVN5faiss25IndexLocalSearchQuantizerE, i32 0, i32 0, i32 2), ptr %15, align 8
  %16 = load i32, ptr %8, align 4
  %17 = sext i32 %16 to i64
  %18 = getelementptr inbounds %"struct.faiss::IndexLocalSearchQuantizer", ptr %15, i32 0, i32 1
  %19 = load i32, ptr %11, align 4
  call void @_ZN5faiss22IndexAdditiveQuantizerC2ElPNS_17AdditiveQuantizerENS_10MetricTypeE(ptr noundef nonnull align 8 dereferenceable(80) %15, i64 noundef %17, ptr noundef %18, i32 noundef %19)
  store ptr getelementptr inbounds ({ [25 x ptr] }, ptr @_ZTVN5faiss25IndexLocalSearchQuantizerE, i32 0, i32 0, i32 2), ptr %15, align 8
  %20 = getelementptr inbounds %"struct.faiss::IndexLocalSearchQuantizer", ptr %15, i32 0, i32 1
  %21 = load i32, ptr %8, align 4
  %22 = sext i32 %21 to i64
  %23 = load i64, ptr %9, align 8
  %24 = load i64, ptr %10, align 8
  %25 = load i32, ptr %12, align 4
  invoke void @_ZN5faiss20LocalSearchQuantizerC1EmmmNS_17AdditiveQuantizer13Search_type_tE(ptr noundef nonnull align 8 dereferenceable(393) %20, i64 noundef %22, i64 noundef %23, i64 noundef %24, i32 noundef %25)
          to label %26 unwind label %32

26:                                               ; preds = %6
  %27 = getelementptr inbounds %"struct.faiss::IndexLocalSearchQuantizer", ptr %15, i32 0, i32 1
  %28 = getelementptr inbounds %"struct.faiss::Quantizer", ptr %27, i32 0, i32 2
  %29 = load i64, ptr %28, align 8
  %30 = getelementptr inbounds %"struct.faiss::IndexFlatCodes", ptr %15, i32 0, i32 1
  store i64 %29, ptr %30, align 8
  %31 = getelementptr inbounds %"struct.faiss::Index", ptr %15, i32 0, i32 5
  store i8 0, ptr %31, align 1
  ret void

32:                                               ; preds = %6
  %33 = landingpad { ptr, i32 }
          cleanup
  %34 = extractvalue { ptr, i32 } %33, 0
  store ptr %34, ptr %13, align 8
  %35 = extractvalue { ptr, i32 } %33, 1
  store i32 %35, ptr %14, align 4
  call void @_ZN5faiss22IndexAdditiveQuantizerD2Ev(ptr noundef nonnull align 8 dereferenceable(80) %15) #11
  br label %36

36:                                               ; preds = %32
  %37 = load ptr, ptr %13, align 8
  %38 = load i32, ptr %14, align 4
  %39 = insertvalue { ptr, i32 } poison, ptr %37, 0
  %40 = insertvalue { ptr, i32 } %39, i32 %38, 1
  resume { ptr, i32 } %40
}