; Function Attrs: mustprogress uwtable
define void @_ZN5faiss25IndexLocalSearchQuantizerC2EimmNS_10MetricTypeENS_17AdditiveQuantizer13Search_type_tE(ptr noundef nonnull align 8 dereferenceable(480) %0, i32 noundef %1, i64 noundef %2, i64 noundef %3, i32 noundef %4, i32 noundef %5) unnamed_addr #2 align 2 personality ptr @__gxx_personality_v0 {
  store ptr getelementptr inbounds ({ [25 x ptr] }, ptr @_ZTVN5faiss25IndexLocalSearchQuantizerE, i64 0, i32 0, i64 2), ptr %0, align 8
  %7 = sext i32 %1 to i64
  %8 = getelementptr inbounds i8, ptr %0, i64 80
  tail call void @_ZN5faiss22IndexAdditiveQuantizerC2ElPNS_17AdditiveQuantizerENS_10MetricTypeE(ptr noundef nonnull align 8 dereferenceable(80) %0, i64 noundef %7, ptr noundef nonnull %8, i32 noundef %4)
  store ptr getelementptr inbounds ({ [25 x ptr] }, ptr @_ZTVN5faiss25IndexLocalSearchQuantizerE, i64 0, i32 0, i64 2), ptr %0, align 8
  invoke void @_ZN5faiss20LocalSearchQuantizerC1EmmmNS_17AdditiveQuantizer13Search_type_tE(ptr noundef nonnull align 8 dereferenceable(393) %8, i64 noundef %7, i64 noundef %2, i64 noundef %3, i32 noundef %5)
          to label %9 unwind label %14

9:                                                ; preds = %6
  %10 = getelementptr inbounds i8, ptr %0, i64 96
  %11 = load i64, ptr %10, align 8
  %12 = getelementptr inbounds i8, ptr %0, i64 40
  store i64 %11, ptr %12, align 8
  %13 = getelementptr inbounds i8, ptr %0, i64 25
  store i8 0, ptr %13, align 1
  ret void

14:                                               ; preds = %6
  %15 = landingpad { ptr, i32 }
          cleanup
  tail call void @_ZN5faiss22IndexAdditiveQuantizerD2Ev(ptr noundef nonnull align 8 dereferenceable(80) %0) #14
  resume { ptr, i32 } %15
}